; Function Attrs: mustprogress uwtable
define hidden void @_ZN4cvc58internal6theory2bv22BitblastProofGenerator15addBitblastStepENS0_12NodeTemplateILb0EEES5_S5_(ptr noundef nonnull align 8 dereferenceable(88) %0, ptr noundef readonly captures(none) %1, ptr noundef readonly captures(none) %2, ptr noundef nonnull %3) local_unnamed_addr #3 align 2 personality ptr @__gxx_personality_v0 {
_ZNSt13unordered_mapIN4cvc58internal12NodeTemplateILb1EEESt5tupleIJS3_S3_EESt4hashIS3_ESt8equal_toIS3_ESaISt4pairIKS3_S5_EEE7emplaceIJRNS2_ILb0EEES4_IJSG_SG_EEEEESA_INSt8__detail14_Node_iteratorISC_Lb0ELb1EEEbEDpOT_.exit:
  %4 = alloca %"class.std::tuple.63", align 8
  %5 = getelementptr inbounds nuw i8, ptr %0, i64 32
  call void @llvm.lifetime.start.p0(i64 16, ptr nonnull %4) #21
  tail call void @llvm.experimental.noalias.scope.decl(metadata !103)
  %6 = load ptr, ptr %2, align 8, !tbaa !54, !noalias !103
  store ptr %6, ptr %4, align 8, !tbaa !54, !alias.scope !103
  %7 = getelementptr inbounds nuw i8, ptr %4, i64 8
  %8 = load ptr, ptr %1, align 8, !tbaa !54, !noalias !103
  store ptr %8, ptr %7, align 8, !tbaa !54, !alias.scope !103
  %9 = call { ptr, i8 } @_ZNSt10_HashtableIN4cvc58internal12NodeTemplateILb1EEESt4pairIKS3_St5tupleIJS3_S3_EEESaIS8_ENSt8__detail10_Select1stESt8equal_toIS3_ESt4hashIS3_ENSA_18_Mod_range_hashingENSA_20_Default_ranged_hashENSA_20_Prime_rehash_policyENSA_17_Hashtable_traitsILb1ELb0ELb1EEEE10_M_emplaceIJRNS2_ILb0EEES6_IJSN_SN_EEEEES4_INSA_14_Node_iteratorIS8_Lb0ELb1EEEbESt17integral_constantIbLb1EEDpOT_(ptr noundef nonnull align 8 dereferenceable(56) %5, ptr noundef nonnull align 8 dereferenceable(8) %3, ptr noundef nonnull align 8 dereferenceable(16) %4)
  call void @llvm.lifetime.end.p0(i64 16, ptr nonnull %4) #21
  ret void
}